target datalayout = "e-m:e-p270:32:32-p271:32:32-p272:64:64-i64:64-i128:128-f80:128-n8:16:32:64-S128"
target triple = "x86_64-pc-linux-gnu"

%struct.IspellDict = type { i32, i32, ptr, ptr, ptr, ptr, ptr, i32, i32, i8, ptr, i8, i32, ptr, i32, i32, ptr, ptr, i32, i32, ptr, i64 }

@.str.2 = private unnamed_addr constant [8 x i8] c"spell.c\00", align 1
@.str.16 = private unnamed_addr constant [24 x i8] c"invalid affix flag \22%s\22\00", align 1
@.str.17 = private unnamed_addr constant [32 x i8] c"affix flag \22%s\22 is out of range\00", align 1
@__func__.getNextFlagFromString = private unnamed_addr constant [22 x i8] c"getNextFlagFromString\00", align 1
@.str.41 = private unnamed_addr constant [4 x i8] c"%0d\00", align 1
@.str.42 = private unnamed_addr constant [37 x i8] c"invalid character in affix flag \22%s\22\00", align 1
@.str.43 = private unnamed_addr constant [40 x i8] c"unrecognized type of Conf->flagMode: %d\00", align 1
@.str.44 = private unnamed_addr constant [47 x i8] c"invalid affix flag \22%s\22 with \22long\22 flag value\00", align 1

; Function Attrs: nounwind uwtable
define internal void @getNextFlagFromString(ptr noundef %0, ptr noundef %1, ptr noundef %2) #0 {
  %4 = alloca ptr, align 8
  %5 = alloca ptr, align 8
  %6 = alloca ptr, align 8
  %7 = alloca i32, align 4
  %8 = alloca ptr, align 8
  %9 = alloca ptr, align 8
  %10 = alloca i32, align 4
  %11 = alloca i8, align 1
  %12 = alloca i8, align 1
  store ptr %0, ptr %4, align 8
  store ptr %1, ptr %5, align 8
  store ptr %2, ptr %6, align 8
  call void @llvm.lifetime.start.p0(i64 4, ptr %7) #11
  call void @llvm.lifetime.start.p0(i64 8, ptr %8) #11
  call void @llvm.lifetime.start.p0(i64 8, ptr %9) #11
  %13 = load ptr, ptr %5, align 8
  %14 = load ptr, ptr %13, align 8
  store ptr %14, ptr %9, align 8
  call void @llvm.lifetime.start.p0(i64 4, ptr %10) #11
  call void @llvm.lifetime.start.p0(i64 1, ptr %11) #11
  store i8 0, ptr %11, align 1
  call void @llvm.lifetime.start.p0(i64 1, ptr %12) #11
  store i8 0, ptr %12, align 1
  %15 = load ptr, ptr %4, align 8
  %16 = getelementptr inbounds nuw %struct.IspellDict, ptr %15, i32 0, i32 12
  %17 = load i32, ptr %16, align 4
  %18 = icmp eq i32 %17, 1
  %19 = select i1 %18, i32 2, i32 1
  store i32 %19, ptr %10, align 4
  br label %20

20:                                               ; preds = %227, %3
  %21 = load ptr, ptr %5, align 8
  %22 = load ptr, ptr %21, align 8
  %23 = load i8, ptr %22, align 1
  %24 = icmp ne i8 %23, 0
  br i1 %24, label %25, label %228

25:                                               ; preds = %20
  %26 = load ptr, ptr %4, align 8
  %27 = getelementptr inbounds nuw %struct.IspellDict, ptr %26, i32 0, i32 12
  %28 = load i32, ptr %27, align 4
  switch i32 %28, label %209 [
    i32 1, label %29
    i32 0, label %29
    i32 2, label %55
  ]

29:                                               ; preds = %25, %25
  %30 = load ptr, ptr %6, align 8
  %31 = load ptr, ptr %5, align 8
  %32 = load ptr, ptr %31, align 8
  %33 = load ptr, ptr %5, align 8
  %34 = load ptr, ptr %33, align 8
  %35 = call i32 @pg_mblen(ptr noundef %34)
  %36 = sext i32 %35 to i64
  call void @llvm.memcpy.p0.p0.i64(ptr align 1 %30, ptr align 1 %32, i64 %36, i1 false)
  %37 = load ptr, ptr %5, align 8
  %38 = load ptr, ptr %37, align 8
  %39 = call i32 @pg_mblen(ptr noundef %38)
  %40 = load ptr, ptr %6, align 8
  %41 = sext i32 %39 to i64
  %42 = getelementptr inbounds i8, ptr %40, i64 %41
  store ptr %42, ptr %6, align 8
  %43 = load ptr, ptr %5, align 8
  %44 = load ptr, ptr %43, align 8
  %45 = call i32 @pg_mblen(ptr noundef %44)
  %46 = load ptr, ptr %5, align 8
  %47 = load ptr, ptr %46, align 8
  %48 = sext i32 %45 to i64
  %49 = getelementptr inbounds i8, ptr %47, i64 %48
  store ptr %49, ptr %46, align 8
  %50 = load i32, ptr %10, align 4
  %51 = add i32 %50, -1
  store i32 %51, ptr %10, align 4
  %52 = load i32, ptr %10, align 4
  %53 = icmp eq i32 %52, 0
  %54 = zext i1 %53 to i8
  store i8 %54, ptr %11, align 1
  br label %223

55:                                               ; preds = %25
  %56 = load ptr, ptr %5, align 8
  %57 = load ptr, ptr %56, align 8
  %58 = call i64 @strtol(ptr noundef %57, ptr noundef %8, i32 noundef 10) #11
  %59 = trunc i64 %58 to i32
  store i32 %59, ptr %7, align 4
  %60 = load ptr, ptr %5, align 8
  %61 = load ptr, ptr %60, align 8
  %62 = load ptr, ptr %8, align 8
  %63 = icmp eq ptr %61, %62
  br i1 %63, label %68, label %64

64:                                               ; preds = %55
  %65 = call ptr @__errno_location() #13
  %66 = load i32, ptr %65, align 4
  %67 = icmp eq i32 %66, 34
  br i1 %67, label %68, label %82

68:                                               ; preds = %64, %55
  br label %69

69:                                               ; preds = %68
  br i1 true, label %70, label %72

70:                                               ; preds = %69
  %71 = call zeroext i1 @errstart_cold(i32 noundef 21, ptr noundef null) #12
  br i1 %71, label %74, label %79

72:                                               ; preds = %69
  %73 = call zeroext i1 @errstart(i32 noundef 21, ptr noundef null)
  br i1 %73, label %74, label %79

74:                                               ; preds = %72, %70
  %75 = call i32 @errcode(i32 noundef 22)
  %76 = load ptr, ptr %5, align 8
  %77 = load ptr, ptr %76, align 8
  %78 = call i32 (ptr, ...) @errmsg(ptr noundef @.str.16, ptr noundef %77)
  call void @errfinish(ptr noundef @.str.2, i32 noundef 382, ptr noundef @__func__.getNextFlagFromString)
  br label %79

79:                                               ; preds = %74, %72, %70
  unreachable

80:                                               ; No predecessors!
  br label %81

81:                                               ; preds = %80
  br label %82

82:                                               ; preds = %81, %64
  %83 = load i32, ptr %7, align 4
  %84 = icmp slt i32 %83, 0
  br i1 %84, label %88, label %85

85:                                               ; preds = %82
  %86 = load i32, ptr %7, align 4
  %87 = icmp sgt i32 %86, 65536
  br i1 %87, label %88, label %102

88:                                               ; preds = %85, %82
  br label %89

89:                                               ; preds = %88
  br i1 true, label %90, label %92

90:                                               ; preds = %89
  %91 = call zeroext i1 @errstart_cold(i32 noundef 21, ptr noundef null) #12
  br i1 %91, label %94, label %99

92:                                               ; preds = %89
  %93 = call zeroext i1 @errstart(i32 noundef 21, ptr noundef null)
  br i1 %93, label %94, label %99

94:                                               ; preds = %92, %90
  %95 = call i32 @errcode(i32 noundef 22)
  %96 = load ptr, ptr %5, align 8
  %97 = load ptr, ptr %96, align 8
  %98 = call i32 (ptr, ...) @errmsg(ptr noundef @.str.17, ptr noundef %97)
  call void @errfinish(ptr noundef @.str.2, i32 noundef 387, ptr noundef @__func__.getNextFlagFromString)
  br label %99

99:                                               ; preds = %94, %92, %90
  unreachable

100:                                              ; No predecessors!
  br label %101

101:                                              ; preds = %100
  br label %102

102:                                              ; preds = %101, %85
  %103 = load ptr, ptr %6, align 8
  %104 = load i32, ptr %7, align 4
  %105 = call i32 (ptr, ptr, ...) @pg_sprintf(ptr noundef %103, ptr noundef @.str.41, i32 noundef %104)
  %106 = load ptr, ptr %6, align 8
  %107 = sext i32 %105 to i64
  %108 = getelementptr inbounds i8, ptr %106, i64 %107
  store ptr %108, ptr %6, align 8
  %109 = load ptr, ptr %8, align 8
  %110 = load ptr, ptr %5, align 8
  store ptr %109, ptr %110, align 8
  br label %111

111:                                              ; preds = %200, %102
  %112 = load ptr, ptr %5, align 8
  %113 = load ptr, ptr %112, align 8
  %114 = load i8, ptr %113, align 1
  %115 = icmp ne i8 %114, 0
  br i1 %115, label %116, label %208

116:                                              ; preds = %111
  %117 = call ptr @__ctype_b_loc() #13
  %118 = load ptr, ptr %117, align 8
  %119 = load ptr, ptr %5, align 8
  %120 = load ptr, ptr %119, align 8
  %121 = load i8, ptr %120, align 1
  %122 = zext i8 %121 to i32
  %123 = sext i32 %122 to i64
  %124 = getelementptr inbounds i16, ptr %118, i64 %123
  %125 = load i16, ptr %124, align 2
  %126 = zext i16 %125 to i32
  %127 = and i32 %126, 2048
  %128 = icmp ne i32 %127, 0
  br i1 %128, label %129, label %147

129:                                              ; preds = %116
  %130 = load i8, ptr %12, align 1, !range !12, !noundef !13
  %131 = trunc i8 %130 to i1
  br i1 %131, label %146, label %132

132:                                              ; preds = %129
  br label %133

133:                                              ; preds = %132
  br i1 true, label %134, label %136

134:                                              ; preds = %133
  %135 = call zeroext i1 @errstart_cold(i32 noundef 21, ptr noundef null) #12
  br i1 %135, label %138, label %143

136:                                              ; preds = %133
  %137 = call zeroext i1 @errstart(i32 noundef 21, ptr noundef null)
  br i1 %137, label %138, label %143

138:                                              ; preds = %136, %134
  %139 = call i32 @errcode(i32 noundef 22)
  %140 = load ptr, ptr %5, align 8
  %141 = load ptr, ptr %140, align 8
  %142 = call i32 (ptr, ...) @errmsg(ptr noundef @.str.16, ptr noundef %141)
  call void @errfinish(ptr noundef @.str.2, i32 noundef 400, ptr noundef @__func__.getNextFlagFromString)
  br label %143

143:                                              ; preds = %138, %136, %134
  unreachable

144:                                              ; No predecessors!
  br label %145

145:                                              ; preds = %144
  br label %146

146:                                              ; preds = %145, %129
  br label %208

147:                                              ; preds = %116
  %148 = load ptr, ptr %5, align 8
  %149 = load ptr, ptr %148, align 8
  %150 = load i8, ptr %149, align 1
  %151 = zext i8 %150 to i32
  %152 = icmp eq i32 %151, 44
  br i1 %152, label %153, label %171

153:                                              ; preds = %147
  %154 = load i8, ptr %12, align 1, !range !12, !noundef !13
  %155 = trunc i8 %154 to i1
  br i1 %155, label %156, label %170

156:                                              ; preds = %153
  br label %157

157:                                              ; preds = %156
  br i1 true, label %158, label %160

158:                                              ; preds = %157
  %159 = call zeroext i1 @errstart_cold(i32 noundef 21, ptr noundef null) #12
  br i1 %159, label %162, label %167

160:                                              ; preds = %157
  %161 = call zeroext i1 @errstart(i32 noundef 21, ptr noundef null)
  br i1 %161, label %162, label %167

162:                                              ; preds = %160, %158
  %163 = call i32 @errcode(i32 noundef 22)
  %164 = load ptr, ptr %5, align 8
  %165 = load ptr, ptr %164, align 8
  %166 = call i32 (ptr, ...) @errmsg(ptr noundef @.str.16, ptr noundef %165)
  call void @errfinish(ptr noundef @.str.2, i32 noundef 409, ptr noundef @__func__.getNextFlagFromString)
  br label %167

167:                                              ; preds = %162, %160, %158
  unreachable

168:                                              ; No predecessors!
  br label %169

169:                                              ; preds = %168
  br label %170

170:                                              ; preds = %169, %153
  store i8 1, ptr %12, align 1
  br label %199

171:                                              ; preds = %147
  %172 = call ptr @__ctype_b_loc() #13
  %173 = load ptr, ptr %172, align 8
  %174 = load ptr, ptr %5, align 8
  %175 = load ptr, ptr %174, align 8
  %176 = load i8, ptr %175, align 1
  %177 = zext i8 %176 to i32
  %178 = sext i32 %177 to i64
  %179 = getelementptr inbounds i16, ptr %173, i64 %178
  %180 = load i16, ptr %179, align 2
  %181 = zext i16 %180 to i32
  %182 = and i32 %181, 8192
  %183 = icmp ne i32 %182, 0
  br i1 %183, label %198, label %184

184:                                              ; preds = %171
  br label %185

185:                                              ; preds = %184
  br i1 true, label %186, label %188

186:                                              ; preds = %185
  %187 = call zeroext i1 @errstart_cold(i32 noundef 21, ptr noundef null) #12
  br i1 %187, label %190, label %195

188:                                              ; preds = %185
  %189 = call zeroext i1 @errstart(i32 noundef 21, ptr noundef null)
  br i1 %189, label %190, label %195

190:                                              ; preds = %188, %186
  %191 = call i32 @errcode(i32 noundef 22)
  %192 = load ptr, ptr %5, align 8
  %193 = load ptr, ptr %192, align 8
  %194 = call i32 (ptr, ...) @errmsg(ptr noundef @.str.42, ptr noundef %193)
  call void @errfinish(ptr noundef @.str.2, i32 noundef 417, ptr noundef @__func__.getNextFlagFromString)
  br label %195

195:                                              ; preds = %190, %188, %186
  unreachable

196:                                              ; No predecessors!
  br label %197

197:                                              ; preds = %196
  br label %198

198:                                              ; preds = %197, %171
  br label %199

199:                                              ; preds = %198, %170
  br label %200

200:                                              ; preds = %199
  %201 = load ptr, ptr %5, align 8
  %202 = load ptr, ptr %201, align 8
  %203 = call i32 @pg_mblen(ptr noundef %202)
  %204 = load ptr, ptr %5, align 8
  %205 = load ptr, ptr %204, align 8
  %206 = sext i32 %203 to i64
  %207 = getelementptr inbounds i8, ptr %205, i64 %206
  store ptr %207, ptr %204, align 8
  br label %111, !llvm.loop !54

208:                                              ; preds = %146, %111
  store i8 1, ptr %11, align 1
  br label %223

209:                                              ; preds = %25
  br label %210

210:                                              ; preds = %209
  br i1 true, label %211, label %213

211:                                              ; preds = %210
  %212 = call zeroext i1 @errstart_cold(i32 noundef 21, ptr noundef null) #12
  br i1 %212, label %215, label %220

213:                                              ; preds = %210
  %214 = call zeroext i1 @errstart(i32 noundef 21, ptr noundef null)
  br i1 %214, label %215, label %220

215:                                              ; preds = %213, %211
  %216 = load ptr, ptr %4, align 8
  %217 = getelementptr inbounds nuw %struct.IspellDict, ptr %216, i32 0, i32 12
  %218 = load i32, ptr %217, align 4
  %219 = call i32 (ptr, ...) @errmsg_internal(ptr noundef @.str.43, i32 noundef %218)
  call void @errfinish(ptr noundef @.str.2, i32 noundef 426, ptr noundef @__func__.getNextFlagFromString)
  br label %220

220:                                              ; preds = %215, %213, %211
  unreachable

221:                                              ; No predecessors!
  br label %222

222:                                              ; preds = %221
  br label %223

223:                                              ; preds = %222, %208, %29
  %224 = load i8, ptr %11, align 1, !range !12, !noundef !13
  %225 = trunc i8 %224 to i1
  br i1 %225, label %226, label %227

226:                                              ; preds = %223
  br label %228

227:                                              ; preds = %223
  br label %20, !llvm.loop !55

228:                                              ; preds = %226, %20
  %229 = load ptr, ptr %4, align 8
  %230 = getelementptr inbounds nuw %struct.IspellDict, ptr %229, i32 0, i32 12
  %231 = load i32, ptr %230, align 4
  %232 = icmp eq i32 %231, 1
  br i1 %232, label %233, label %249

233:                                              ; preds = %228
  %234 = load i32, ptr %10, align 4
  %235 = icmp sgt i32 %234, 0
  br i1 %235, label %236, label %249

236:                                              ; preds = %233
  br label %237

237:                                              ; preds = %236
  br i1 true, label %238, label %240

238:                                              ; preds = %237
  %239 = call zeroext i1 @errstart_cold(i32 noundef 21, ptr noundef null) #12
  br i1 %239, label %242, label %246

240:                                              ; preds = %237
  %241 = call zeroext i1 @errstart(i32 noundef 21, ptr noundef null)
  br i1 %241, label %242, label %246

242:                                              ; preds = %240, %238
  %243 = call i32 @errcode(i32 noundef 22)
  %244 = load ptr, ptr %9, align 8
  %245 = call i32 (ptr, ...) @errmsg(ptr noundef @.str.44, ptr noundef %244)
  call void @errfinish(ptr noundef @.str.2, i32 noundef 437, ptr noundef @__func__.getNextFlagFromString)
  br label %246

246:                                              ; preds = %242, %240, %238
  unreachable

247:                                              ; No predecessors!
  br label %248

248:                                              ; preds = %247
  br label %249

249:                                              ; preds = %248, %233, %228
  %250 = load ptr, ptr %6, align 8
  store i8 0, ptr %250, align 1
  call void @llvm.lifetime.end.p0(i64 1, ptr %12) #11
  call void @llvm.lifetime.end.p0(i64 1, ptr %11) #11
  call void @llvm.lifetime.end.p0(i64 4, ptr %10) #11
  call void @llvm.lifetime.end.p0(i64 8, ptr %9) #11
  call void @llvm.lifetime.end.p0(i64 8, ptr %8) #11
  call void @llvm.lifetime.end.p0(i64 4, ptr %7) #11
  ret void
}