; Function Attrs: nounwind uwtable
define internal fastcc void @getNextFlagFromString(ptr noundef readonly captures(none) %0, ptr noundef nonnull captures(none) %1, ptr noundef nonnull %2) unnamed_addr #0 {
  %4 = alloca ptr, align 8
  call void @llvm.lifetime.start.p0(i64 8, ptr nonnull %4) #14
  %5 = load ptr, ptr %1, align 8
  %6 = getelementptr inbounds nuw i8, ptr %0, i64 76
  %7 = load i32, ptr %6, align 4
  %8 = icmp eq i32 %7, 1
  %9 = select i1 %8, i32 2, i32 1
  br label %10

10:                                               ; preds = %81, %3
  %11 = phi ptr [ %5, %3 ], [ %90, %81 ]
  %.046 = phi ptr [ %2, %3 ], [ %.248, %81 ]
  %.043 = phi i32 [ %9, %3 ], [ %91, %81 ]
  %12 = load i8, ptr %11, align 1
  %.not = icmp eq i8 %12, 0
  br i1 %.not, label %.loopexit, label %13

13:                                               ; preds = %10
  %14 = load i32, ptr %6, align 4
  switch i32 %14, label %77 [
    i32 1, label %81
    i32 0, label %81
    i32 2, label %15
  ]

15:                                               ; preds = %13
  %16 = call i64 @strtol(ptr noundef nonnull %11, ptr noundef nonnull %4, i32 noundef 10) #14
  %17 = trunc i64 %16 to i32
  %18 = load ptr, ptr %1, align 8
  %19 = load ptr, ptr %4, align 8
  %20 = icmp eq ptr %18, %19
  br i1 %20, label %25, label %21

21:                                               ; preds = %15
  %22 = tail call ptr @__errno_location() #16
  %23 = load i32, ptr %22, align 4
  %24 = icmp eq i32 %23, 34
  br i1 %24, label %25, label %30

25:                                               ; preds = %21, %15
  %26 = tail call zeroext i1 @errstart_cold(i32 noundef 21, ptr noundef null) #15
  tail call void @llvm.assume(i1 %26)
  %27 = tail call i32 @errcode(i32 noundef 22) #14
  %28 = load ptr, ptr %1, align 8
  %29 = tail call i32 (ptr, ...) @errmsg(ptr noundef nonnull @.str.16, ptr noundef %28) #14
  tail call void @errfinish(ptr noundef nonnull @.str.2, i32 noundef 382, ptr noundef nonnull @__func__.getNextFlagFromString) #14
  unreachable

30:                                               ; preds = %21
  %or.cond = icmp ugt i32 %17, 65536
  br i1 %or.cond, label %31, label %36

31:                                               ; preds = %30
  %32 = tail call zeroext i1 @errstart_cold(i32 noundef 21, ptr noundef null) #15
  tail call void @llvm.assume(i1 %32)
  %33 = tail call i32 @errcode(i32 noundef 22) #14
  %34 = load ptr, ptr %1, align 8
  %35 = tail call i32 (ptr, ...) @errmsg(ptr noundef nonnull @.str.17, ptr noundef %34) #14
  tail call void @errfinish(ptr noundef nonnull @.str.2, i32 noundef 387, ptr noundef nonnull @__func__.getNextFlagFromString) #14
  unreachable

36:                                               ; preds = %30
  %37 = tail call i32 (ptr, ptr, ...) @pg_sprintf(ptr noundef %.046, ptr noundef nonnull @.str.41, i32 noundef %17) #14
  store ptr %19, ptr %1, align 8
  %38 = load i8, ptr %19, align 1
  %.not5178 = icmp eq i8 %38, 0
  br i1 %.not5178, label %.thread, label %.lr.ph

.lr.ph:                                           ; preds = %36
  %39 = tail call ptr @__ctype_b_loc() #16
  br label %40

40:                                               ; preds = %.lr.ph, %71
  %41 = phi i8 [ %38, %.lr.ph ], [ %76, %71 ]
  %.280 = phi i8 [ 0, %.lr.ph ], [ %.3, %71 ]
  %storemerge79 = phi ptr [ %19, %.lr.ph ], [ %75, %71 ]
  %42 = load ptr, ptr %39, align 8
  %43 = zext i8 %41 to i64
  %44 = getelementptr inbounds nuw i16, ptr %42, i64 %43
  %45 = load i16, ptr %44, align 2
  %46 = zext i16 %45 to i32
  %47 = and i32 %46, 2048
  %.not52 = icmp eq i32 %47, 0
  br i1 %.not52, label %55, label %48

48:                                               ; preds = %40
  %49 = trunc nuw i8 %.280 to i1
  br i1 %49, label %.thread, label %50

50:                                               ; preds = %48
  %51 = tail call zeroext i1 @errstart_cold(i32 noundef 21, ptr noundef null) #15
  tail call void @llvm.assume(i1 %51)
  %52 = tail call i32 @errcode(i32 noundef 22) #14
  %53 = load ptr, ptr %1, align 8
  %54 = tail call i32 (ptr, ...) @errmsg(ptr noundef nonnull @.str.16, ptr noundef %53) #14
  tail call void @errfinish(ptr noundef nonnull @.str.2, i32 noundef 400, ptr noundef nonnull @__func__.getNextFlagFromString) #14
  unreachable

55:                                               ; preds = %40
  %56 = icmp eq i8 %41, 44
  br i1 %56, label %57, label %64

57:                                               ; preds = %55
  %58 = trunc nuw i8 %.280 to i1
  br i1 %58, label %59, label %71

59:                                               ; preds = %57
  %60 = tail call zeroext i1 @errstart_cold(i32 noundef 21, ptr noundef null) #15
  tail call void @llvm.assume(i1 %60)
  %61 = tail call i32 @errcode(i32 noundef 22) #14
  %62 = load ptr, ptr %1, align 8
  %63 = tail call i32 (ptr, ...) @errmsg(ptr noundef nonnull @.str.16, ptr noundef %62) #14
  tail call void @errfinish(ptr noundef nonnull @.str.2, i32 noundef 409, ptr noundef nonnull @__func__.getNextFlagFromString) #14
  unreachable

64:                                               ; preds = %55
  %65 = and i32 %46, 8192
  %.not53 = icmp eq i32 %65, 0
  br i1 %.not53, label %66, label %71

66:                                               ; preds = %64
  %67 = tail call zeroext i1 @errstart_cold(i32 noundef 21, ptr noundef null) #15
  tail call void @llvm.assume(i1 %67)
  %68 = tail call i32 @errcode(i32 noundef 22) #14
  %69 = load ptr, ptr %1, align 8
  %70 = tail call i32 (ptr, ...) @errmsg(ptr noundef nonnull @.str.42, ptr noundef %69) #14
  tail call void @errfinish(ptr noundef nonnull @.str.2, i32 noundef 417, ptr noundef nonnull @__func__.getNextFlagFromString) #14
  unreachable

71:                                               ; preds = %57, %64
  %.3 = phi i8 [ %.280, %64 ], [ 1, %57 ]
  %72 = tail call i32 @pg_mblen(ptr noundef nonnull %storemerge79) #14
  %73 = load ptr, ptr %1, align 8
  %74 = sext i32 %72 to i64
  %75 = getelementptr inbounds i8, ptr %73, i64 %74
  store ptr %75, ptr %1, align 8
  %76 = load i8, ptr %75, align 1
  %.not51 = icmp eq i8 %76, 0
  br i1 %.not51, label %.thread, label %40, !llvm.loop !63

77:                                               ; preds = %13
  %78 = tail call zeroext i1 @errstart_cold(i32 noundef 21, ptr noundef null) #15
  tail call void @llvm.assume(i1 %78)
  %79 = load i32, ptr %6, align 4
  %80 = tail call i32 (ptr, ...) @errmsg_internal(ptr noundef nonnull @.str.43, i32 noundef %79) #14
  tail call void @errfinish(ptr noundef nonnull @.str.2, i32 noundef 426, ptr noundef nonnull @__func__.getNextFlagFromString) #14
  unreachable

.thread:                                          ; preds = %71, %36, %48
  %.pn58 = sext i32 %37 to i64
  %.24859 = getelementptr inbounds i8, ptr %.046, i64 %.pn58
  br label %.loopexit

81:                                               ; preds = %13, %13
  %82 = tail call i32 @pg_mblen(ptr noundef nonnull %11) #14
  %83 = sext i32 %82 to i64
  tail call void @llvm.memcpy.p0.p0.i64(ptr align 1 %.046, ptr nonnull align 1 %11, i64 %83, i1 false)
  %84 = load ptr, ptr %1, align 8
  %85 = tail call i32 @pg_mblen(ptr noundef %84) #14
  %86 = load ptr, ptr %1, align 8
  %87 = tail call i32 @pg_mblen(ptr noundef %86) #14
  %88 = load ptr, ptr %1, align 8
  %89 = sext i32 %87 to i64
  %90 = getelementptr inbounds i8, ptr %88, i64 %89
  store ptr %90, ptr %1, align 8
  %91 = add i32 %.043, -1
  %92 = icmp eq i32 %91, 0
  %.pn = sext i32 %85 to i64
  %.248 = getelementptr inbounds i8, ptr %.046, i64 %.pn
  br i1 %92, label %.thread60, label %10, !llvm.loop !64

.loopexit:                                        ; preds = %10, %.thread
  %.147 = phi ptr [ %.24859, %.thread ], [ %.046, %10 ]
  %93 = load i32, ptr %6, align 4
  %94 = icmp eq i32 %93, 1
  %95 = icmp sgt i32 %.043, 0
  %or.cond3 = select i1 %94, i1 %95, i1 false
  br i1 %or.cond3, label %96, label %.thread60

96:                                               ; preds = %.loopexit
  %97 = tail call zeroext i1 @errstart_cold(i32 noundef 21, ptr noundef null) #15
  tail call void @llvm.assume(i1 %97)
  %98 = tail call i32 @errcode(i32 noundef 22) #14
  %99 = tail call i32 (ptr, ...) @errmsg(ptr noundef nonnull @.str.44, ptr noundef %5) #14
  tail call void @errfinish(ptr noundef nonnull @.str.2, i32 noundef 437, ptr noundef nonnull @__func__.getNextFlagFromString) #14
  unreachable

.thread60:                                        ; preds = %81, %.loopexit
  %.14764 = phi ptr [ %.147, %.loopexit ], [ %.248, %81 ]
  store i8 0, ptr %.14764, align 1
  call void @llvm.lifetime.end.p0(i64 8, ptr nonnull %4) #14
  ret void
}